; ModuleID = '19/2679.c'
source_filename = "19/2679.c"
target datalayout = "e-m:e-p270:32:32-p271:32:32-p272:64:64-i64:64-f80:128-n8:16:32:64-S128"
target triple = "x86_64-pc-linux-gnu"

@.str = private unnamed_addr constant [5 x i8] c"%s%s\00", align 1
@m = common dso_local global [110 x [110 x i8]] zeroinitializer, align 16
@.str.1 = private unnamed_addr constant [4 x i8] c"%s \00", align 1
@.str.2 = private unnamed_addr constant [4 x i8] c"%s\0A\00", align 1

; Function Attrs: noinline nounwind uwtable
define dso_local i32 @main() #0 {
  %1 = alloca i32, align 4
  %2 = alloca [110 x i8], align 16
  %3 = alloca [110 x i8], align 16
  %4 = alloca [110 x i8], align 16
  %5 = alloca i32, align 4
  %6 = alloca i32, align 4
  %7 = alloca i32, align 4
  %8 = alloca i32, align 4
  store i32 0, i32* %1, align 4
  %9 = getelementptr inbounds [110 x i8], [110 x i8]* %2, i64 0, i64 0
  %10 = call i32 (i8*, ...) bitcast (i32 (...)* @gets to i32 (i8*, ...)*)(i8* %9)
  %11 = getelementptr inbounds [110 x i8], [110 x i8]* %3, i64 0, i64 0
  %12 = getelementptr inbounds [110 x i8], [110 x i8]* %4, i64 0, i64 0
  %13 = call i32 (i8*, ...) @__isoc99_scanf(i8* getelementptr inbounds ([5 x i8], [5 x i8]* @.str, i64 0, i64 0), i8* %11, i8* %12)
  store i32 0, i32* %5, align 4
  store i32 0, i32* %6, align 4
  br label %14

14:                                               ; preds = %29, %0
  %15 = load i32, i32* %6, align 4
  %16 = sext i32 %15 to i64
  %17 = getelementptr inbounds [110 x i8], [110 x i8]* %2, i64 0, i64 %16
  %18 = load i8, i8* %17, align 1
  %19 = sext i8 %18 to i32
  %20 = icmp ne i32 %19, 32
  br i1 %20, label %21, label %32

21:                                               ; preds = %14
  %22 = load i32, i32* %6, align 4
  %23 = sext i32 %22 to i64
  %24 = getelementptr inbounds [110 x i8], [110 x i8]* %2, i64 0, i64 %23
  %25 = load i8, i8* %24, align 1
  %26 = load i32, i32* %6, align 4
  %27 = sext i32 %26 to i64
  %28 = getelementptr inbounds [110 x i8], [110 x i8]* getelementptr inbounds ([110 x [110 x i8]], [110 x [110 x i8]]* @m, i64 0, i64 0), i64 0, i64 %27
  store i8 %25, i8* %28, align 1
  br label %29

29:                                               ; preds = %21
  %30 = load i32, i32* %6, align 4
  %31 = add nsw i32 %30, 1
  store i32 %31, i32* %6, align 4
  br label %14

32:                                               ; preds = %14
  %33 = load i32, i32* %6, align 4
  %34 = sext i32 %33 to i64
  %35 = getelementptr inbounds [110 x i8], [110 x i8]* getelementptr inbounds ([110 x [110 x i8]], [110 x [110 x i8]]* @m, i64 0, i64 0), i64 0, i64 %34
  store i8 0, i8* %35, align 1
  %36 = load i32, i32* %5, align 4
  %37 = add nsw i32 %36, 1
  store i32 %37, i32* %5, align 4
  %38 = load i32, i32* %6, align 4
  %39 = add nsw i32 %38, 1
  store i32 %39, i32* %6, align 4
  %40 = getelementptr inbounds [110 x i8], [110 x i8]* %2, i64 0, i64 0
  %41 = call i64 @strlen(i8* %40) #4
  %42 = trunc i64 %41 to i32
  store i32 %42, i32* %8, align 4
  br label %43

43:                                               ; preds = %94, %32
  %44 = load i32, i32* %6, align 4
  %45 = sext i32 %44 to i64
  %46 = getelementptr inbounds [110 x i8], [110 x i8]* %2, i64 0, i64 %45
  %47 = load i8, i8* %46, align 1
  %48 = sext i8 %47 to i32
  %49 = icmp ne i32 %48, 0
  br i1 %49, label %50, label %95

50:                                               ; preds = %43
  store i32 0, i32* %7, align 4
  br label %51

51:                                               ; preds = %67, %50
  %52 = load i32, i32* %6, align 4
  %53 = sext i32 %52 to i64
  %54 = getelementptr inbounds [110 x i8], [110 x i8]* %2, i64 0, i64 %53
  %55 = load i8, i8* %54, align 1
  %56 = sext i8 %55 to i32
  %57 = icmp ne i32 %56, 32
  br i1 %57, label %58, label %65

58:                                               ; preds = %51
  %59 = load i32, i32* %6, align 4
  %60 = sext i32 %59 to i64
  %61 = getelementptr inbounds [110 x i8], [110 x i8]* %2, i64 0, i64 %60
  %62 = load i8, i8* %61, align 1
  %63 = sext i8 %62 to i32
  %64 = icmp ne i32 %63, 0
  br label %65

65:                                               ; preds = %58, %51
  %66 = phi i1 [ false, %51 ], [ %64, %58 ]
  br i1 %66, label %67, label %80

67:                                               ; preds = %65
  %68 = load i32, i32* %6, align 4
  %69 = add nsw i32 %68, 1
  store i32 %69, i32* %6, align 4
  %70 = sext i32 %68 to i64
  %71 = getelementptr inbounds [110 x i8], [110 x i8]* %2, i64 0, i64 %70
  %72 = load i8, i8* %71, align 1
  %73 = load i32, i32* %5, align 4
  %74 = sext i32 %73 to i64
  %75 = getelementptr inbounds [110 x [110 x i8]], [110 x [110 x i8]]* @m, i64 0, i64 %74
  %76 = load i32, i32* %7, align 4
  %77 = add nsw i32 %76, 1
  store i32 %77, i32* %7, align 4
  %78 = sext i32 %76 to i64
  %79 = getelementptr inbounds [110 x i8], [110 x i8]* %75, i64 0, i64 %78
  store i8 %72, i8* %79, align 1
  br label %51

80:                                               ; preds = %65
  %81 = load i32, i32* %5, align 4
  %82 = add nsw i32 %81, 1
  store i32 %82, i32* %5, align 4
  %83 = sext i32 %81 to i64
  %84 = getelementptr inbounds [110 x [110 x i8]], [110 x [110 x i8]]* @m, i64 0, i64 %83
  %85 = load i32, i32* %7, align 4
  %86 = sext i32 %85 to i64
  %87 = getelementptr inbounds [110 x i8], [110 x i8]* %84, i64 0, i64 %86
  store i8 0, i8* %87, align 1
  %88 = load i32, i32* %6, align 4
  %89 = add nsw i32 %88, 1
  store i32 %89, i32* %6, align 4
  %90 = load i32, i32* %6, align 4
  %91 = load i32, i32* %8, align 4
  %92 = icmp sge i32 %90, %91
  br i1 %92, label %93, label %94

93:                                               ; preds = %80
  br label %95

94:                                               ; preds = %80
  br label %43

95:                                               ; preds = %93, %43
  store i32 0, i32* %6, align 4
  br label %96

96:                                               ; preds = %125, %95
  %97 = load i32, i32* %6, align 4
  %98 = load i32, i32* %5, align 4
  %99 = icmp slt i32 %97, %98
  br i1 %99, label %100, label %128

100:                                              ; preds = %96
  %101 = getelementptr inbounds [110 x i8], [110 x i8]* %3, i64 0, i64 0
  %102 = load i32, i32* %6, align 4
  %103 = sext i32 %102 to i64
  %104 = getelementptr inbounds [110 x [110 x i8]], [110 x [110 x i8]]* @m, i64 0, i64 %103
  %105 = getelementptr inbounds [110 x i8], [110 x i8]* %104, i64 0, i64 0
  %106 = call i32 @strcmp(i8* %101, i8* %105) #4
  %107 = icmp eq i32 %106, 0
  br i1 %107, label %108, label %124

108:                                              ; preds = %100
  %109 = load i32, i32* %6, align 4
  %110 = sext i32 %109 to i64
  %111 = getelementptr inbounds [110 x [110 x i8]], [110 x [110 x i8]]* @m, i64 0, i64 %110
  %112 = getelementptr inbounds [110 x i8], [110 x i8]* %111, i64 0, i64 0
  %113 = getelementptr inbounds [110 x i8], [110 x i8]* %4, i64 0, i64 0
  %114 = call i8* @strcpy(i8* %112, i8* %113) #5
  %115 = getelementptr inbounds [110 x i8], [110 x i8]* %4, i64 0, i64 0
  %116 = call i64 @strlen(i8* %115) #4
  %117 = trunc i64 %116 to i32
  store i32 %117, i32* %8, align 4
  %118 = load i32, i32* %6, align 4
  %119 = sext i32 %118 to i64
  %120 = getelementptr inbounds [110 x [110 x i8]], [110 x [110 x i8]]* @m, i64 0, i64 %119
  %121 = load i32, i32* %8, align 4
  %122 = sext i32 %121 to i64
  %123 = getelementptr inbounds [110 x i8], [110 x i8]* %120, i64 0, i64 %122
  store i8 0, i8* %123, align 1
  br label %124

124:                                              ; preds = %108, %100
  br label %125

125:                                              ; preds = %124
  %126 = load i32, i32* %6, align 4
  %127 = add nsw i32 %126, 1
  store i32 %127, i32* %6, align 4
  br label %96

128:                                              ; preds = %96
  store i32 0, i32* %6, align 4
  br label %129

129:                                              ; preds = %140, %128
  %130 = load i32, i32* %6, align 4
  %131 = load i32, i32* %5, align 4
  %132 = sub nsw i32 %131, 1
  %133 = icmp slt i32 %130, %132
  br i1 %133, label %134, label %143

134:                                              ; preds = %129
  %135 = load i32, i32* %6, align 4
  %136 = sext i32 %135 to i64
  %137 = getelementptr inbounds [110 x [110 x i8]], [110 x [110 x i8]]* @m, i64 0, i64 %136
  %138 = getelementptr inbounds [110 x i8], [110 x i8]* %137, i64 0, i64 0
  %139 = call i32 (i8*, ...) @printf(i8* getelementptr inbounds ([4 x i8], [4 x i8]* @.str.1, i64 0, i64 0), i8* %138)
  br label %140

140:                                              ; preds = %134
  %141 = load i32, i32* %6, align 4
  %142 = add nsw i32 %141, 1
  store i32 %142, i32* %6, align 4
  br label %129

143:                                              ; preds = %129
  %144 = load i32, i32* %5, align 4
  %145 = sub nsw i32 %144, 1
  %146 = sext i32 %145 to i64
  %147 = getelementptr inbounds [110 x [110 x i8]], [110 x [110 x i8]]* @m, i64 0, i64 %146
  %148 = getelementptr inbounds [110 x i8], [110 x i8]* %147, i64 0, i64 0
  %149 = call i32 (i8*, ...) @printf(i8* getelementptr inbounds ([4 x i8], [4 x i8]* @.str.2, i64 0, i64 0), i8* %148)
  ret i32 0
}

declare dso_local i32 @gets(...) #1

declare dso_local i32 @__isoc99_scanf(i8*, ...) #1

; Function Attrs: nounwind readonly
declare dso_local i64 @strlen(i8*) #2

; Function Attrs: nounwind readonly
declare dso_local i32 @strcmp(i8*, i8*) #2

; Function Attrs: nounwind
declare dso_local i8* @strcpy(i8*, i8*) #3

declare dso_local i32 @printf(i8*, ...) #1


!llvm.module.flags = !{!0}
!llvm.ident = !{!1}

!0 = !{i32 1, !"wchar_size", i32 4}
!1 = !{!"clang version 10.0.0-4ubuntu1 "}
